target datalayout = "e-m:e-p270:32:32-p271:32:32-p272:64:64-i64:64-i128:128-f80:128-n8:16:32:64-S128"
target triple = "x86_64-pc-linux-gnu"

%struct.Vec_Int_t_ = type { i32, i32, ptr }
%struct.sat_solver_t = type { i32, i32, i32, i32, %struct.Sat_Mem_t_, i32, i32, ptr, ptr, i32, i32, i32, i32, i32, i64, i64, i64, ptr, ptr, i32, i32, %struct.veci_t, ptr, i32, ptr, ptr, ptr, ptr, ptr, ptr, ptr, ptr, %struct.veci_t, %struct.veci_t, %struct.veci_t, %struct.veci_t, ptr, %struct.veci_t, i32, i32, i32, double, double, i32, i32, i32, %struct.stats_t, i32, i32, i32, i32, i32, i64, i64, i64, %struct.veci_t, ptr, i32, i32, i32, %struct.veci_t, %struct.veci_t, i32, i32, i32, ptr, ptr, i32, ptr, i32, i32, %struct.veci_t, %struct.veci_t, %struct.veci_t, ptr, ptr, i32, ptr }
%struct.Sat_Mem_t_ = type { [2 x i32], [2 x i32], [2 x i32], [2 x i32], i32, i32, i32, i32, ptr }
%struct.stats_t = type { i32, i32, i32, i64, i64, i64, i64, i64, i64, i64 }
%struct.veci_t = type { i32, i32, ptr }

; Function Attrs: inlinehint nounwind uwtable
define internal void @Abc_TtXorBit(ptr noundef %0, i32 noundef %1) #2 {
  %3 = alloca ptr, align 8
  %4 = alloca i32, align 4
  store ptr %0, ptr %3, align 8, !tbaa !75
  store i32 %1, ptr %4, align 4, !tbaa !12
  %5 = load i32, ptr %4, align 4, !tbaa !12
  %6 = and i32 %5, 63
  %7 = zext i32 %6 to i64
  %8 = shl i64 1, %7
  %9 = load ptr, ptr %3, align 8, !tbaa !75
  %10 = load i32, ptr %4, align 4, !tbaa !12
  %11 = ashr i32 %10, 6
  %12 = sext i32 %11 to i64
  %13 = getelementptr inbounds i64, ptr %9, i64 %12
  %14 = load i64, ptr %13, align 8, !tbaa !42
  %15 = xor i64 %14, %8
  store i64 %15, ptr %13, align 8, !tbaa !42
  ret void
}

; Function Attrs: inlinehint nounwind uwtable
define internal i32 @sat_solver_var_value(ptr noundef %0, i32 noundef %1) #2 {
  %3 = alloca ptr, align 8
  %4 = alloca i32, align 4
  store ptr %0, ptr %3, align 8, !tbaa !3
  store i32 %1, ptr %4, align 4, !tbaa !12
  %5 = load ptr, ptr %3, align 8, !tbaa !3
  %6 = getelementptr inbounds nuw %struct.sat_solver_t, ptr %5, i32 0, i32 36
  %7 = load ptr, ptr %6, align 8, !tbaa !49
  %8 = load i32, ptr %4, align 4, !tbaa !12
  %9 = sext i32 %8 to i64
  %10 = getelementptr inbounds i32, ptr %7, i64 %9
  %11 = load i32, ptr %10, align 4, !tbaa !12
  %12 = icmp eq i32 %11, 1
  %13 = zext i1 %12 to i32
  ret i32 %13
}

; Function Attrs: inlinehint nounwind uwtable
define internal i32 @Abc_TtGetBit(ptr noundef %0, i32 noundef %1) #2 {
  %3 = alloca ptr, align 8
  %4 = alloca i32, align 4
  store ptr %0, ptr %3, align 8, !tbaa !75
  store i32 %1, ptr %4, align 4, !tbaa !12
  %5 = load ptr, ptr %3, align 8, !tbaa !75
  %6 = load i32, ptr %4, align 4, !tbaa !12
  %7 = ashr i32 %6, 6
  %8 = sext i32 %7 to i64
  %9 = getelementptr inbounds i64, ptr %5, i64 %8
  %10 = load i64, ptr %9, align 8, !tbaa !42
  %11 = load i32, ptr %4, align 4, !tbaa !12
  %12 = and i32 %11, 63
  %13 = zext i32 %12 to i64
  %14 = lshr i64 %10, %13
  %15 = trunc i64 %14 to i32
  %16 = and i32 %15, 1
  ret i32 %16
}

; Function Attrs: nounwind uwtable
define internal void @sat_solver_random_polarity(ptr noundef %0) #0 {
  %2 = alloca ptr, align 8
  %3 = alloca i32, align 4
  %4 = alloca i32, align 4
  %5 = alloca i64, align 8
  store ptr %0, ptr %2, align 8, !tbaa !3
  call void @llvm.lifetime.start.p0(i64 4, ptr %3) #8
  call void @llvm.lifetime.start.p0(i64 4, ptr %4) #8
  store i32 0, ptr %3, align 4, !tbaa !12
  br label %6

6:                                                ; preds = %45, %1
  %7 = load i32, ptr %3, align 4, !tbaa !12
  %8 = load ptr, ptr %2, align 8, !tbaa !3
  %9 = getelementptr inbounds nuw %struct.sat_solver_t, ptr %8, i32 0, i32 0
  %10 = load i32, ptr %9, align 8, !tbaa !78
  %11 = icmp slt i32 %7, %10
  br i1 %11, label %12, label %48

12:                                               ; preds = %6
  call void @llvm.lifetime.start.p0(i64 8, ptr %5) #8
  %13 = call i64 @Gia_ManRandomW(i32 noundef 0)
  store i64 %13, ptr %5, align 8, !tbaa !42
  store i32 0, ptr %4, align 4, !tbaa !12
  br label %14

14:                                               ; preds = %41, %12
  %15 = load i32, ptr %4, align 4, !tbaa !12
  %16 = icmp slt i32 %15, 64
  br i1 %16, label %17, label %26

17:                                               ; preds = %14
  %18 = load i32, ptr %3, align 4, !tbaa !12
  %19 = shl i32 %18, 6
  %20 = load i32, ptr %4, align 4, !tbaa !12
  %21 = add nsw i32 %19, %20
  %22 = load ptr, ptr %2, align 8, !tbaa !3
  %23 = getelementptr inbounds nuw %struct.sat_solver_t, ptr %22, i32 0, i32 0
  %24 = load i32, ptr %23, align 8, !tbaa !78
  %25 = icmp slt i32 %21, %24
  br label %26

26:                                               ; preds = %17, %14
  %27 = phi i1 [ false, %14 ], [ %25, %17 ]
  br i1 %27, label %28, label %44

28:                                               ; preds = %26
  %29 = load i32, ptr %4, align 4, !tbaa !12
  %30 = call i32 @Abc_TtGetBit(ptr noundef %5, i32 noundef %29)
  %31 = trunc i32 %30 to i8
  %32 = load ptr, ptr %2, align 8, !tbaa !3
  %33 = getelementptr inbounds nuw %struct.sat_solver_t, ptr %32, i32 0, i32 26
  %34 = load ptr, ptr %33, align 8, !tbaa !79
  %35 = load i32, ptr %3, align 4, !tbaa !12
  %36 = shl i32 %35, 6
  %37 = load i32, ptr %4, align 4, !tbaa !12
  %38 = add nsw i32 %36, %37
  %39 = sext i32 %38 to i64
  %40 = getelementptr inbounds i8, ptr %34, i64 %39
  store i8 %31, ptr %40, align 1, !tbaa !68
  br label %41

41:                                               ; preds = %28
  %42 = load i32, ptr %4, align 4, !tbaa !12
  %43 = add nsw i32 %42, 1
  store i32 %43, ptr %4, align 4, !tbaa !12
  br label %14, !llvm.loop !80

44:                                               ; preds = %26
  call void @llvm.lifetime.end.p0(i64 8, ptr %5) #8
  br label %45

45:                                               ; preds = %44
  %46 = load i32, ptr %3, align 4, !tbaa !12
  %47 = add nsw i32 %46, 64
  store i32 %47, ptr %3, align 4, !tbaa !12
  br label %6, !llvm.loop !81

48:                                               ; preds = %6
  call void @llvm.lifetime.end.p0(i64 4, ptr %4) #8
  call void @llvm.lifetime.end.p0(i64 4, ptr %3) #8
  ret void
}

; Function Attrs: inlinehint nounwind uwtable
define internal i32 @Abc_Var2Lit(i32 noundef %0, i32 noundef %1) #2 {
  %3 = alloca i32, align 4
  %4 = alloca i32, align 4
  store i32 %0, ptr %3, align 4, !tbaa !12
  store i32 %1, ptr %4, align 4, !tbaa !12
  %5 = load i32, ptr %3, align 4, !tbaa !12
  %6 = load i32, ptr %3, align 4, !tbaa !12
  %7 = add nsw i32 %5, %6
  %8 = load i32, ptr %4, align 4, !tbaa !12
  %9 = add nsw i32 %7, %8
  ret i32 %9
}

; Function Attrs: inlinehint nounwind uwtable
define internal i32 @Vec_IntEntry(ptr noundef %0, i32 noundef %1) #2 {
  %3 = alloca ptr, align 8
  %4 = alloca i32, align 4
  store ptr %0, ptr %3, align 8, !tbaa !10
  store i32 %1, ptr %4, align 4, !tbaa !12
  %5 = load ptr, ptr %3, align 8, !tbaa !10
  %6 = getelementptr inbounds nuw %struct.Vec_Int_t_, ptr %5, i32 0, i32 2
  %7 = load ptr, ptr %6, align 8, !tbaa !24
  %8 = load i32, ptr %4, align 4, !tbaa !12
  %9 = sext i32 %8 to i64
  %10 = getelementptr inbounds i32, ptr %7, i64 %9
  %11 = load i32, ptr %10, align 4, !tbaa !12
  ret i32 %11
}

; Function Attrs: inlinehint nounwind uwtable
define internal i32 @Vec_IntSize(ptr noundef %0) #2 {
  %2 = alloca ptr, align 8
  store ptr %0, ptr %2, align 8, !tbaa !10
  %3 = load ptr, ptr %2, align 8, !tbaa !10
  %4 = getelementptr inbounds nuw %struct.Vec_Int_t_, ptr %3, i32 0, i32 1
  %5 = load i32, ptr %4, align 4, !tbaa !21
  ret i32 %5
}

; Function Attrs: nounwind uwtable
define i32 @Sbd_ManCollectConstants(ptr noundef %0, ptr noundef %1, i32 noundef %2, ptr noundef %3, ptr noundef %4) #0 {
  %6 = alloca i32, align 4
  %7 = alloca ptr, align 8
  %8 = alloca ptr, align 8
  %9 = alloca i32, align 4
  %10 = alloca ptr, align 8
  %11 = alloca ptr, align 8
  %12 = alloca i32, align 4
  %13 = alloca i32, align 4
  %14 = alloca i32, align 4
  %15 = alloca i32, align 4
  %16 = alloca i32, align 4
  %17 = alloca i32, align 4
  %18 = alloca i32, align 4
  %19 = alloca i32, align 4
  store ptr %0, ptr %7, align 8, !tbaa !3
  store ptr %1, ptr %8, align 8, !tbaa !45
  store i32 %2, ptr %9, align 4, !tbaa !12
  store ptr %3, ptr %10, align 8, !tbaa !73
  store ptr %4, ptr %11, align 8, !tbaa !10
  call void @llvm.lifetime.start.p0(i64 4, ptr %12) #8
  store i32 0, ptr %12, align 4, !tbaa !12
  call void @llvm.lifetime.start.p0(i64 4, ptr %13) #8
  call void @llvm.lifetime.start.p0(i64 4, ptr %14) #8
  store i32 0, ptr %13, align 4, !tbaa !12
  br label %20

20:                                               ; preds = %87, %5
  %21 = load i32, ptr %13, align 4, !tbaa !12
  %22 = load ptr, ptr %11, align 8, !tbaa !10
  %23 = call i32 @Vec_IntSize(ptr noundef %22)
  %24 = icmp slt i32 %21, %23
  br i1 %24, label %25, label %29

25:                                               ; preds = %20
  %26 = load ptr, ptr %11, align 8, !tbaa !10
  %27 = load i32, ptr %13, align 4, !tbaa !12
  %28 = call i32 @Vec_IntEntry(ptr noundef %26, i32 noundef %27)
  store i32 %28, ptr %14, align 4, !tbaa !12
  br label %29

29:                                               ; preds = %25, %20
  %30 = phi i1 [ false, %20 ], [ true, %25 ]
  br i1 %30, label %31, label %90

31:                                               ; preds = %29
  call void @llvm.lifetime.start.p0(i64 4, ptr %15) #8
  %32 = load i32, ptr %13, align 4, !tbaa !12
  %33 = load ptr, ptr %8, align 8, !tbaa !45
  %34 = getelementptr inbounds i32, ptr %33, i64 0
  %35 = load i32, ptr %34, align 4, !tbaa !12
  %36 = icmp slt i32 %32, %35
  %37 = zext i1 %36 to i32
  store i32 %37, ptr %15, align 4, !tbaa !12
  call void @llvm.lifetime.start.p0(i64 4, ptr %16) #8
  call void @llvm.lifetime.start.p0(i64 4, ptr %17) #8
  call void @llvm.lifetime.start.p0(i64 4, ptr %18) #8
  %38 = load i32, ptr %9, align 4, !tbaa !12
  %39 = load i32, ptr %15, align 4, !tbaa !12
  %40 = call i32 @Abc_Var2Lit(i32 noundef %38, i32 noundef %39)
  store i32 %40, ptr %18, align 4, !tbaa !12
  %41 = load ptr, ptr %7, align 8, !tbaa !3
  call void @sat_solver_random_polarity(ptr noundef %41)
  %42 = load ptr, ptr %7, align 8, !tbaa !3
  %43 = getelementptr inbounds i32, ptr %18, i64 1
  %44 = load i32, ptr %12, align 4, !tbaa !12
  %45 = sext i32 %44 to i64
  %46 = call i32 @sat_solver_solve(ptr noundef %42, ptr noundef %18, ptr noundef %43, i64 noundef %45, i64 noundef 0, i64 noundef 0, i64 noundef 0)
  store i32 %46, ptr %16, align 4, !tbaa !12
  %47 = load i32, ptr %16, align 4, !tbaa !12
  %48 = icmp eq i32 %47, 0
  br i1 %48, label %49, label %50

49:                                               ; preds = %31
  store i32 -2, ptr %6, align 4
  store i32 1, ptr %19, align 4
  br label %84

50:                                               ; preds = %31
  %51 = load i32, ptr %16, align 4, !tbaa !12
  %52 = icmp eq i32 %51, -1
  br i1 %52, label %53, label %55

53:                                               ; preds = %50
  %54 = load i32, ptr %15, align 4, !tbaa !12
  store i32 %54, ptr %6, align 4
  store i32 1, ptr %19, align 4
  br label %84

55:                                               ; preds = %50
  store i32 0, ptr %17, align 4, !tbaa !12
  br label %56

56:                                               ; preds = %80, %55
  %57 = load i32, ptr %17, align 4, !tbaa !12
  %58 = load i32, ptr %9, align 4, !tbaa !12
  %59 = icmp sle i32 %57, %58
  br i1 %59, label %60, label %83

60:                                               ; preds = %56
  %61 = load ptr, ptr %10, align 8, !tbaa !73
  %62 = load i32, ptr %17, align 4, !tbaa !12
  %63 = sext i32 %62 to i64
  %64 = getelementptr inbounds ptr, ptr %61, i64 %63
  %65 = load ptr, ptr %64, align 8, !tbaa !75
  %66 = load i32, ptr %14, align 4, !tbaa !12
  %67 = call i32 @Abc_TtGetBit(ptr noundef %65, i32 noundef %66)
  %68 = load ptr, ptr %7, align 8, !tbaa !3
  %69 = load i32, ptr %17, align 4, !tbaa !12
  %70 = call i32 @sat_solver_var_value(ptr noundef %68, i32 noundef %69)
  %71 = icmp ne i32 %67, %70
  br i1 %71, label %72, label %79

72:                                               ; preds = %60
  %73 = load ptr, ptr %10, align 8, !tbaa !73
  %74 = load i32, ptr %17, align 4, !tbaa !12
  %75 = sext i32 %74 to i64
  %76 = getelementptr inbounds ptr, ptr %73, i64 %75
  %77 = load ptr, ptr %76, align 8, !tbaa !75
  %78 = load i32, ptr %14, align 4, !tbaa !12
  call void @Abc_TtXorBit(ptr noundef %77, i32 noundef %78)
  br label %79

79:                                               ; preds = %72, %60
  br label %80

80:                                               ; preds = %79
  %81 = load i32, ptr %17, align 4, !tbaa !12
  %82 = add nsw i32 %81, 1
  store i32 %82, ptr %17, align 4, !tbaa !12
  br label %56, !llvm.loop !76

83:                                               ; preds = %56
  store i32 0, ptr %19, align 4
  br label %84

84:                                               ; preds = %83, %53, %49
  call void @llvm.lifetime.end.p0(i64 4, ptr %18) #8
  call void @llvm.lifetime.end.p0(i64 4, ptr %17) #8
  call void @llvm.lifetime.end.p0(i64 4, ptr %16) #8
  call void @llvm.lifetime.end.p0(i64 4, ptr %15) #8
  %85 = load i32, ptr %19, align 4
  switch i32 %85, label %91 [
    i32 0, label %86
  ]

86:                                               ; preds = %84
  br label %87

87:                                               ; preds = %86
  %88 = load i32, ptr %13, align 4, !tbaa !12
  %89 = add nsw i32 %88, 1
  store i32 %89, ptr %13, align 4, !tbaa !12
  br label %20, !llvm.loop !77

90:                                               ; preds = %29
  store i32 -1, ptr %6, align 4
  store i32 1, ptr %19, align 4
  br label %91

91:                                               ; preds = %90, %84
  call void @llvm.lifetime.end.p0(i64 4, ptr %14) #8
  call void @llvm.lifetime.end.p0(i64 4, ptr %13) #8
  call void @llvm.lifetime.end.p0(i64 4, ptr %12) #8
  %92 = load i32, ptr %6, align 4
  ret i32 %92
}