; Function Attrs: nounwind uwtable
define range(i32 -2, 2) i32 @Sbd_ManCollectConstants(ptr noundef %0, ptr noundef readonly captures(none) %1, i32 noundef %2, ptr noundef readonly captures(none) %3, ptr noundef readonly captures(none) %4) local_unnamed_addr #0 {
  %6 = alloca i32, align 4
  %7 = getelementptr i8, ptr %4, i64 4
  %.val41 = load i32, ptr %7, align 4, !tbaa !7
  %8 = icmp sgt i32 %.val41, 0
  br i1 %8, label %.lr.ph44, label %.critedge

.lr.ph44:                                         ; preds = %5
  %9 = getelementptr i8, ptr %4, i64 8
  %10 = shl nsw i32 %2, 1
  %11 = getelementptr inbounds nuw i8, ptr %0, i64 216
  %12 = getelementptr inbounds nuw i8, ptr %6, i64 4
  %.not39 = icmp slt i32 %2, 0
  %13 = getelementptr i8, ptr %0, i64 328
  br i1 %.not39, label %.lr.ph44.split.us, label %.lr.ph44.split.preheader

.lr.ph44.split.preheader:                         ; preds = %.lr.ph44
  %14 = add nuw i32 %2, 1
  %wide.trip.count = zext i32 %14 to i64
  br label %.lr.ph44.split

.lr.ph44.split.us:                                ; preds = %.lr.ph44, %.preheader.us
  %.02942.us = phi i32 [ %38, %.preheader.us ], [ 0, %.lr.ph44 ]
  %15 = load i32, ptr %1, align 4, !tbaa !3
  %16 = icmp slt i32 %.02942.us, %15
  %17 = zext i1 %16 to i32
  call void @llvm.lifetime.start.p0(i64 4, ptr nonnull %6) #12
  %18 = or disjoint i32 %10, %17
  store i32 %18, ptr %6, align 4, !tbaa !3
  %19 = load i32, ptr %0, align 8, !tbaa !63
  %20 = icmp sgt i32 %19, 0
  br i1 %20, label %.lr.ph.i.us, label %sat_solver_random_polarity.exit.us

.lr.ph.i.us:                                      ; preds = %.lr.ph44.split.us, %.critedge.i.us
  %indvars.iv16.i.us = phi i64 [ %indvars.iv.next17.i.us, %.critedge.i.us ], [ 0, %.lr.ph44.split.us ]
  %21 = call i64 @Gia_ManRandomW(i32 noundef 0) #12
  %22 = trunc nuw nsw i64 %indvars.iv16.i.us to i32
  %23 = shl i32 %22, 6
  %24 = sext i32 %23 to i64
  br label %25

25:                                               ; preds = %30, %.lr.ph.i.us
  %indvars.iv.i.us = phi i64 [ 0, %.lr.ph.i.us ], [ %indvars.iv.next.i.us, %30 ]
  %26 = add nuw nsw i64 %indvars.iv.i.us, %24
  %27 = load i32, ptr %0, align 8, !tbaa !63
  %28 = sext i32 %27 to i64
  %29 = icmp slt i64 %26, %28
  br i1 %29, label %30, label %.critedge.i.us

30:                                               ; preds = %25
  %31 = lshr i64 %21, %indvars.iv.i.us
  %32 = trunc i64 %31 to i8
  %33 = and i8 %32, 1
  %34 = load ptr, ptr %11, align 8, !tbaa !64
  %35 = getelementptr inbounds i8, ptr %34, i64 %26
  store i8 %33, ptr %35, align 1, !tbaa !60
  %indvars.iv.next.i.us = add nuw nsw i64 %indvars.iv.i.us, 1
  %exitcond.not.i.us = icmp eq i64 %indvars.iv.next.i.us, 64
  br i1 %exitcond.not.i.us, label %..critedge_crit_edge.i.us, label %25, !llvm.loop !65

..critedge_crit_edge.i.us:                        ; preds = %30
  %.pre.i.us = load i32, ptr %0, align 8, !tbaa !63
  %.pre19.i.us = sext i32 %.pre.i.us to i64
  br label %.critedge.i.us

.critedge.i.us:                                   ; preds = %25, %..critedge_crit_edge.i.us
  %.pre-phi.i.us = phi i64 [ %.pre19.i.us, %..critedge_crit_edge.i.us ], [ %28, %25 ]
  %indvars.iv.next17.i.us = add nuw nsw i64 %indvars.iv16.i.us, 64
  %36 = icmp slt i64 %indvars.iv.next17.i.us, %.pre-phi.i.us
  br i1 %36, label %.lr.ph.i.us, label %sat_solver_random_polarity.exit.us, !llvm.loop !66

sat_solver_random_polarity.exit.us:               ; preds = %.critedge.i.us, %.lr.ph44.split.us
  %37 = call i32 @sat_solver_solve(ptr noundef nonnull %0, ptr noundef nonnull %6, ptr noundef nonnull %12, i64 noundef 0, i64 noundef 0, i64 noundef 0, i64 noundef 0) #12
  switch i32 %37, label %.preheader.us [
    i32 0, label %.thread.loopexit
    i32 -1, label %.thread
  ]

.preheader.us:                                    ; preds = %sat_solver_random_polarity.exit.us
  call void @llvm.lifetime.end.p0(i64 4, ptr nonnull %6) #12
  %38 = add nuw nsw i32 %.02942.us, 1
  %.val.us = load i32, ptr %7, align 4, !tbaa !7
  %39 = icmp slt i32 %38, %.val.us
  br i1 %39, label %.lr.ph44.split.us, label %.critedge, !llvm.loop !67

.lr.ph44.split:                                   ; preds = %.lr.ph44.split.preheader, %._crit_edge
  %indvars.iv59 = phi i64 [ 0, %.lr.ph44.split.preheader ], [ %indvars.iv.next60, %._crit_edge ]
  %.val32 = load ptr, ptr %9, align 8, !tbaa !11
  %40 = getelementptr inbounds nuw i32, ptr %.val32, i64 %indvars.iv59
  %41 = load i32, ptr %40, align 4, !tbaa !3
  %42 = load i32, ptr %1, align 4, !tbaa !3
  %43 = sext i32 %42 to i64
  %44 = icmp slt i64 %indvars.iv59, %43
  %45 = zext i1 %44 to i32
  call void @llvm.lifetime.start.p0(i64 4, ptr nonnull %6) #12
  %46 = or disjoint i32 %10, %45
  store i32 %46, ptr %6, align 4, !tbaa !3
  %47 = load i32, ptr %0, align 8, !tbaa !63
  %48 = icmp sgt i32 %47, 0
  br i1 %48, label %.lr.ph.i, label %sat_solver_random_polarity.exit

.lr.ph.i:                                         ; preds = %.lr.ph44.split, %.critedge.i
  %indvars.iv16.i = phi i64 [ %indvars.iv.next17.i, %.critedge.i ], [ 0, %.lr.ph44.split ]
  %49 = call i64 @Gia_ManRandomW(i32 noundef 0) #12
  %50 = trunc nuw nsw i64 %indvars.iv16.i to i32
  %51 = shl i32 %50, 6
  %52 = sext i32 %51 to i64
  br label %53

53:                                               ; preds = %58, %.lr.ph.i
  %indvars.iv.i = phi i64 [ 0, %.lr.ph.i ], [ %indvars.iv.next.i, %58 ]
  %54 = add nuw nsw i64 %indvars.iv.i, %52
  %55 = load i32, ptr %0, align 8, !tbaa !63
  %56 = sext i32 %55 to i64
  %57 = icmp slt i64 %54, %56
  br i1 %57, label %58, label %.critedge.i

58:                                               ; preds = %53
  %59 = lshr i64 %49, %indvars.iv.i
  %60 = trunc i64 %59 to i8
  %61 = and i8 %60, 1
  %62 = load ptr, ptr %11, align 8, !tbaa !64
  %63 = getelementptr inbounds i8, ptr %62, i64 %54
  store i8 %61, ptr %63, align 1, !tbaa !60
  %indvars.iv.next.i = add nuw nsw i64 %indvars.iv.i, 1
  %exitcond.not.i = icmp eq i64 %indvars.iv.next.i, 64
  br i1 %exitcond.not.i, label %..critedge_crit_edge.i, label %53, !llvm.loop !65

..critedge_crit_edge.i:                           ; preds = %58
  %.pre.i = load i32, ptr %0, align 8, !tbaa !63
  %.pre19.i = sext i32 %.pre.i to i64
  br label %.critedge.i

.critedge.i:                                      ; preds = %53, %..critedge_crit_edge.i
  %.pre-phi.i = phi i64 [ %.pre19.i, %..critedge_crit_edge.i ], [ %56, %53 ]
  %indvars.iv.next17.i = add nuw nsw i64 %indvars.iv16.i, 64
  %64 = icmp slt i64 %indvars.iv.next17.i, %.pre-phi.i
  br i1 %64, label %.lr.ph.i, label %sat_solver_random_polarity.exit, !llvm.loop !66

sat_solver_random_polarity.exit:                  ; preds = %.critedge.i, %.lr.ph44.split
  %65 = call i32 @sat_solver_solve(ptr noundef nonnull %0, ptr noundef nonnull %6, ptr noundef nonnull %12, i64 noundef 0, i64 noundef 0, i64 noundef 0, i64 noundef 0) #12
  switch i32 %65, label %.preheader [
    i32 0, label %.thread.loopexit89
    i32 -1, label %.thread
  ]

.preheader:                                       ; preds = %sat_solver_random_polarity.exit
  %66 = ashr i32 %41, 6
  %67 = sext i32 %66 to i64
  %68 = and i32 %41, 63
  %69 = zext nneg i32 %68 to i64
  %.val33 = load ptr, ptr %13, align 8, !tbaa !36
  %70 = shl nuw i64 1, %69
  br label %71

71:                                               ; preds = %.preheader, %83
  %indvars.iv = phi i64 [ 0, %.preheader ], [ %indvars.iv.next, %83 ]
  %72 = getelementptr inbounds nuw ptr, ptr %3, i64 %indvars.iv
  %73 = load ptr, ptr %72, align 8, !tbaa !68
  %74 = getelementptr inbounds i64, ptr %73, i64 %67
  %75 = load i64, ptr %74, align 8, !tbaa !53
  %76 = lshr i64 %75, %69
  %77 = getelementptr inbounds nuw i32, ptr %.val33, i64 %indvars.iv
  %78 = load i32, ptr %77, align 4, !tbaa !3
  %79 = trunc i64 %76 to i1
  %80 = icmp ne i32 %78, 1
  %.not31 = xor i1 %80, %79
  br i1 %.not31, label %83, label %81

81:                                               ; preds = %71
  %82 = xor i64 %75, %70
  store i64 %82, ptr %74, align 8, !tbaa !53
  br label %83

83:                                               ; preds = %71, %81
  %indvars.iv.next = add nuw nsw i64 %indvars.iv, 1
  %exitcond.not = icmp eq i64 %indvars.iv.next, %wide.trip.count
  br i1 %exitcond.not, label %._crit_edge, label %71, !llvm.loop !69

.thread.loopexit:                                 ; preds = %sat_solver_random_polarity.exit.us
  br label %.thread

.thread.loopexit89:                               ; preds = %sat_solver_random_polarity.exit
  br label %.thread

.thread:                                          ; preds = %sat_solver_random_polarity.exit, %sat_solver_random_polarity.exit.us, %.thread.loopexit89, %.thread.loopexit
  %.1.ph = phi i32 [ -2, %.thread.loopexit ], [ -2, %.thread.loopexit89 ], [ %17, %sat_solver_random_polarity.exit.us ], [ %45, %sat_solver_random_polarity.exit ]
  call void @llvm.lifetime.end.p0(i64 4, ptr nonnull %6) #12
  br label %.critedge

._crit_edge:                                      ; preds = %83
  call void @llvm.lifetime.end.p0(i64 4, ptr nonnull %6) #12
  %indvars.iv.next60 = add nuw nsw i64 %indvars.iv59, 1
  %.val = load i32, ptr %7, align 4, !tbaa !7
  %84 = sext i32 %.val to i64
  %85 = icmp slt i64 %indvars.iv.next60, %84
  br i1 %85, label %.lr.ph44.split, label %.critedge, !llvm.loop !67

.critedge:                                        ; preds = %._crit_edge, %.preheader.us, %5, %.thread
  %.2 = phi i32 [ %.1.ph, %.thread ], [ -1, %5 ], [ -1, %.preheader.us ], [ -1, %._crit_edge ]
  ret i32 %.2
}